; ModuleID = 'source-C-CXX/32/1533.c'
source_filename = "source-C-CXX/32/1533.c"
target datalayout = "e-m:e-p270:32:32-p271:32:32-p272:64:64-i64:64-f80:128-n8:16:32:64-S128"
target triple = "x86_64-pc-linux-gnu"

@.str = private unnamed_addr constant [3 x i8] c"%d\00", align 1
@.str.1 = private unnamed_addr constant [3 x i8] c"%s\00", align 1

; Function Attrs: mustprogress nofree norecurse nosync nounwind readnone sspstrong uwtable willreturn
define dso_local signext i8 @peidui(i8 signext %0) local_unnamed_addr #0 {
  %2 = icmp eq i8 %0, 65
  %3 = select i1 %2, i8 84, i8 0
  %4 = icmp eq i8 %0, 84
  %5 = select i1 %4, i8 65, i8 %3
  %6 = icmp eq i8 %0, 67
  %7 = select i1 %6, i8 71, i8 %5
  %8 = icmp eq i8 %0, 71
  %9 = select i1 %8, i8 67, i8 %7
  ret i8 %9
}

; Function Attrs: argmemonly mustprogress nofree nosync nounwind willreturn
declare void @llvm.lifetime.start.p0i8(i64 immarg, i8* nocapture) #1

; Function Attrs: argmemonly mustprogress nofree nosync nounwind willreturn
declare void @llvm.lifetime.end.p0i8(i64 immarg, i8* nocapture) #1

; Function Attrs: nofree nounwind sspstrong uwtable
define dso_local i32 @main() local_unnamed_addr #2 {
  %1 = alloca i32, align 4
  %2 = alloca [256 x i8], align 16
  %3 = bitcast i32* %1 to i8*
  call void @llvm.lifetime.start.p0i8(i64 4, i8* nonnull %3) #6
  %4 = getelementptr inbounds [256 x i8], [256 x i8]* %2, i64 0, i64 0
  call void @llvm.lifetime.start.p0i8(i64 256, i8* nonnull %4) #6
  %5 = call i32 (i8*, ...) @__isoc99_scanf(i8* getelementptr inbounds ([3 x i8], [3 x i8]* @.str, i64 0, i64 0), i32* nonnull %1)
  %6 = load i32, i32* %1, align 4, !tbaa !5
  %7 = icmp sgt i32 %6, 0
  br i1 %7, label %8, label %36

8:                                                ; preds = %0, %31
  %9 = phi i32 [ %33, %31 ], [ 0, %0 ]
  %10 = call i32 (i8*, ...) @__isoc99_scanf(i8* getelementptr inbounds ([3 x i8], [3 x i8]* @.str.1, i64 0, i64 0), i8* nonnull %4)
  %11 = call i64 @strlen(i8* noundef nonnull %4) #7
  %12 = trunc i64 %11 to i32
  %13 = icmp sgt i32 %12, 0
  br i1 %13, label %14, label %31

14:                                               ; preds = %8
  %15 = and i64 %11, 4294967295
  br label %16

16:                                               ; preds = %14, %16
  %17 = phi i64 [ 0, %14 ], [ %29, %16 ]
  %18 = getelementptr inbounds [256 x i8], [256 x i8]* %2, i64 0, i64 %17
  %19 = load i8, i8* %18, align 1, !tbaa !9
  %20 = icmp eq i8 %19, 65
  %21 = select i1 %20, i32 84, i32 0
  %22 = icmp eq i8 %19, 84
  %23 = select i1 %22, i32 65, i32 %21
  %24 = icmp eq i8 %19, 67
  %25 = select i1 %24, i32 71, i32 %23
  %26 = icmp eq i8 %19, 71
  %27 = select i1 %26, i32 67, i32 %25
  %28 = call i32 @putchar(i32 %27)
  %29 = add nuw nsw i64 %17, 1
  %30 = icmp eq i64 %29, %15
  br i1 %30, label %31, label %16, !llvm.loop !10

31:                                               ; preds = %16, %8
  %32 = call i32 @putchar(i32 10)
  %33 = add nuw nsw i32 %9, 1
  %34 = load i32, i32* %1, align 4, !tbaa !5
  %35 = icmp slt i32 %33, %34
  br i1 %35, label %8, label %36, !llvm.loop !12

36:                                               ; preds = %31, %0
  call void @llvm.lifetime.end.p0i8(i64 256, i8* nonnull %4) #6
  call void @llvm.lifetime.end.p0i8(i64 4, i8* nonnull %3) #6
  ret i32 0
}

; Function Attrs: nofree nounwind
declare noundef i32 @__isoc99_scanf(i8* nocapture noundef readonly, ...) local_unnamed_addr #3

; Function Attrs: argmemonly mustprogress nofree nounwind readonly willreturn
declare i64 @strlen(i8* nocapture) local_unnamed_addr #4

; Function Attrs: nofree nounwind
declare noundef i32 @putchar(i32 noundef) local_unnamed_addr #5


!llvm.module.flags = !{!0, !1, !2, !3}
!llvm.ident = !{!4}

!0 = !{i32 1, !"wchar_size", i32 4}
!1 = !{i32 7, !"PIC Level", i32 2}
!2 = !{i32 7, !"PIE Level", i32 2}
!3 = !{i32 7, !"uwtable", i32 1}
!4 = !{!"clang version 13.0.0"}
!5 = !{!6, !6, i64 0}
!6 = !{!"int", !7, i64 0}
!7 = !{!"omnipotent char", !8, i64 0}
!8 = !{!"Simple C/C++ TBAA"}
!9 = !{!7, !7, i64 0}
!10 = distinct !{!10, !11}
!11 = !{!"llvm.loop.mustprogress"}
!12 = distinct !{!12, !11}
